target datalayout = "e-m:e-p270:32:32-p271:32:32-p272:64:64-i64:64-i128:128-f80:128-n8:16:32:64-S128"
target triple = "x86_64-pc-linux-gnu"

%struct._packet_info = type { ptr, ptr, i32, i32, %struct.nstime_t, %struct.nstime_t, %struct.nstime_t, i8, ptr, ptr, ptr, ptr, %struct._address, %struct._address, %struct._address, %struct._address, %struct._address, %struct._address, i32, ptr, i8, [3 x i8], %struct.anon, i32, i32, i32, i32, ptr, i8, ptr, ptr, i16, i16, i32, i32, i16, i32, i32, ptr, ptr, ptr, i8, i8, i16, i16, i16, i32, i16, i16, ptr, ptr, ptr, ptr, ptr, i32, i32 }
%struct.nstime_t = type { i64, i32 }
%struct._address = type { i32, i32, ptr, ptr }
%struct.anon = type { i8, [3 x i8] }

@hf_glusterfs_dict = internal global i32 0, align 4
@hf_glusterfs_pargfid = internal global i32 0, align 4
@hf_glusterfs_bname = internal global i32 0, align 4
@hf_glusterfs_umask = internal global i32 0, align 4
@hf_glusterfs_mode = internal global i32 0, align 4
@ett_glusterfs_mode = internal global i32 0, align 4
@.str.573 = private unnamed_addr constant [15 x i8] c", Filename: %s\00", align 1

; Function Attrs: null_pointer_is_valid sspstrong uwtable
define internal i32 @glusterfs_rpc_dissect_mode(ptr noundef %0, ptr noundef %1, i32 noundef %2, i32 noundef %3) #0 {
  %5 = alloca ptr, align 8
  %6 = alloca ptr, align 8
  %7 = alloca i32, align 4
  %8 = alloca i32, align 4
  store ptr %0, ptr %5, align 8
  store ptr %1, ptr %6, align 8
  store i32 %2, ptr %7, align 4
  store i32 %3, ptr %8, align 4
  %9 = load ptr, ptr %5, align 8
  %10 = load ptr, ptr %6, align 8
  %11 = load i32, ptr %8, align 4
  %12 = load i32, ptr %7, align 4
  %13 = load i32, ptr @ett_glusterfs_mode, align 4
  %14 = call ptr @proto_tree_add_bitmask(ptr noundef %9, ptr noundef %10, i32 noundef %11, i32 noundef %12, i32 noundef %13, ptr noundef @glusterfs_rpc_dissect_mode.mode_bits, i32 noundef 0)
  %15 = load i32, ptr %8, align 4
  %16 = add i32 %15, 4
  store i32 %16, ptr %8, align 4
  %17 = load i32, ptr %8, align 4
  ret i32 %17
}

; Function Attrs: null_pointer_is_valid sspstrong uwtable
define internal i32 @glusterfs_rpc_dissect_gfid(ptr noundef %0, ptr noundef %1, i32 noundef %2, i32 noundef %3) #0 {
  %5 = alloca ptr, align 8
  %6 = alloca ptr, align 8
  %7 = alloca i32, align 4
  %8 = alloca i32, align 4
  store ptr %0, ptr %5, align 8
  store ptr %1, ptr %6, align 8
  store i32 %2, ptr %7, align 4
  store i32 %3, ptr %8, align 4
  %9 = load ptr, ptr %5, align 8
  %10 = load i32, ptr %7, align 4
  %11 = load ptr, ptr %6, align 8
  %12 = load i32, ptr %8, align 4
  %13 = call ptr @proto_tree_add_item(ptr noundef %9, i32 noundef %10, ptr noundef %11, i32 noundef %12, i32 noundef 16, i32 noundef 0)
  %14 = load i32, ptr %8, align 4
  %15 = add i32 %14, 16
  store i32 %15, ptr %8, align 4
  %16 = load i32, ptr %8, align 4
  ret i32 %16
}

; Function Attrs: null_pointer_is_valid sspstrong uwtable
define internal i32 @glusterfs_gfs3_3_op_mkdir_call(ptr noundef %0, ptr noundef %1, ptr noundef %2, ptr noundef %3) #0 {
  %5 = alloca ptr, align 8
  %6 = alloca ptr, align 8
  %7 = alloca ptr, align 8
  %8 = alloca ptr, align 8
  %9 = alloca i32, align 4
  %10 = alloca ptr, align 8
  store ptr %0, ptr %5, align 8
  store ptr %1, ptr %6, align 8
  store ptr %2, ptr %7, align 8
  store ptr %3, ptr %8, align 8
  call void @llvm.lifetime.start.p0(i64 4, ptr %9) #5
  store i32 0, ptr %9, align 4
  call void @llvm.lifetime.start.p0(i64 8, ptr %10) #5
  store ptr null, ptr %10, align 8
  %11 = load ptr, ptr %7, align 8
  %12 = load ptr, ptr %5, align 8
  %13 = load i32, ptr @hf_glusterfs_pargfid, align 4
  %14 = load i32, ptr %9, align 4
  %15 = call i32 @glusterfs_rpc_dissect_gfid(ptr noundef %11, ptr noundef %12, i32 noundef %13, i32 noundef %14)
  store i32 %15, ptr %9, align 4
  %16 = load ptr, ptr %7, align 8
  %17 = load ptr, ptr %5, align 8
  %18 = load i32, ptr @hf_glusterfs_mode, align 4
  %19 = load i32, ptr %9, align 4
  %20 = call i32 @glusterfs_rpc_dissect_mode(ptr noundef %16, ptr noundef %17, i32 noundef %18, i32 noundef %19)
  store i32 %20, ptr %9, align 4
  %21 = load ptr, ptr %7, align 8
  %22 = load ptr, ptr %5, align 8
  %23 = load i32, ptr @hf_glusterfs_umask, align 4
  %24 = load i32, ptr %9, align 4
  %25 = call i32 @glusterfs_rpc_dissect_mode(ptr noundef %21, ptr noundef %22, i32 noundef %23, i32 noundef %24)
  store i32 %25, ptr %9, align 4
  %26 = load ptr, ptr %5, align 8
  %27 = load ptr, ptr %7, align 8
  %28 = load i32, ptr @hf_glusterfs_bname, align 4
  %29 = load i32, ptr %9, align 4
  %30 = call i32 @dissect_rpc_string(ptr noundef %26, ptr noundef %27, i32 noundef %28, i32 noundef %29, ptr noundef %10)
  store i32 %30, ptr %9, align 4
  %31 = load ptr, ptr %7, align 8
  %32 = load ptr, ptr %5, align 8
  %33 = load i32, ptr @hf_glusterfs_dict, align 4
  %34 = load i32, ptr %9, align 4
  %35 = call i32 @gluster_rpc_dissect_dict(ptr noundef %31, ptr noundef %32, i32 noundef %33, i32 noundef %34)
  store i32 %35, ptr %9, align 4
  %36 = load ptr, ptr %6, align 8
  %37 = getelementptr inbounds nuw %struct._packet_info, ptr %36, i32 0, i32 1
  %38 = load ptr, ptr %37, align 8
  %39 = load ptr, ptr %10, align 8
  call void (ptr, i32, ptr, ...) @col_append_fstr(ptr noundef %38, i32 noundef 25, ptr noundef @.str.573, ptr noundef %39)
  %40 = load i32, ptr %9, align 4
  call void @llvm.lifetime.end.p0(i64 8, ptr %10) #5
  call void @llvm.lifetime.end.p0(i64 4, ptr %9) #5
  ret i32 %40
}