; Function Attrs: null_pointer_is_valid sspstrong uwtable
define internal i32 @glusterfs_gfs3_3_op_mkdir_call(ptr noundef %0, ptr noundef readonly captures(none) %1, ptr noundef %2, ptr readnone captures(none) %3) #0 {
  %5 = alloca ptr, align 8
  call void @llvm.lifetime.start.p0(i64 8, ptr nonnull %5) #4
  store ptr null, ptr %5, align 8
  %6 = load i32, ptr @hf_glusterfs_pargfid, align 4
  %7 = tail call ptr @proto_tree_add_item(ptr noundef %2, i32 noundef %6, ptr noundef %0, i32 noundef 0, i32 noundef 16, i32 noundef 0)
  %8 = load i32, ptr @hf_glusterfs_mode, align 4
  %9 = load i32, ptr @ett_glusterfs_mode, align 4
  %10 = tail call ptr @proto_tree_add_bitmask(ptr noundef %2, ptr noundef %0, i32 noundef 16, i32 noundef %8, i32 noundef %9, ptr noundef nonnull @glusterfs_rpc_dissect_mode.mode_bits, i32 noundef 0)
  %11 = load i32, ptr @hf_glusterfs_umask, align 4
  %12 = load i32, ptr @ett_glusterfs_mode, align 4
  %13 = tail call ptr @proto_tree_add_bitmask(ptr noundef %2, ptr noundef %0, i32 noundef 20, i32 noundef %11, i32 noundef %12, ptr noundef nonnull @glusterfs_rpc_dissect_mode.mode_bits, i32 noundef 0)
  %14 = load i32, ptr @hf_glusterfs_bname, align 4
  %15 = call i32 @dissect_rpc_string(ptr noundef %0, ptr noundef %2, i32 noundef %14, i32 noundef 24, ptr noundef nonnull %5)
  %16 = load i32, ptr @hf_glusterfs_dict, align 4
  %17 = call i32 @gluster_rpc_dissect_dict(ptr noundef %2, ptr noundef %0, i32 noundef %16, i32 noundef %15)
  %18 = getelementptr inbounds nuw i8, ptr %1, i64 8
  %19 = load ptr, ptr %18, align 8
  %20 = load ptr, ptr %5, align 8
  call void (ptr, i32, ptr, ...) @col_append_fstr(ptr noundef %19, i32 noundef 25, ptr noundef nonnull @.str.573, ptr noundef %20)
  call void @llvm.lifetime.end.p0(i64 8, ptr nonnull %5) #4
  ret i32 %17
}